; Function Attrs: nounwind uwtable
define ptr @l___private_Lean_Elab_DeclNameGen_0__Lean_Elab_Command_NameGen_winnowExpr_visit___lambda__1(ptr noundef %0, ptr %1, ptr readnone captures(none) %2, ptr noundef %3, ptr noundef %4, ptr noundef %5, ptr noundef %6, ptr noundef %7, ptr noundef %8) local_unnamed_addr #1 {
  %10 = tail call ptr @l___private_Lean_Expr_0__Lean_Expr_getAppNumArgsAux(ptr noundef %0, ptr noundef nonnull inttoptr (i64 1 to ptr)) #4
  %11 = load ptr, ptr @l___private_Lean_Elab_DeclNameGen_0__Lean_Elab_Command_NameGen_winnowExpr_visit___lambda__1___closed__1, align 8, !tbaa !9
  %12 = ptrtoint ptr %10 to i64
  %13 = and i64 %12, 1
  %.not = icmp eq i64 %13, 0
  br i1 %.not, label %14, label %20

14:                                               ; preds = %9
  %.val.i = load i32, ptr %10, align 4, !tbaa !4
  %15 = icmp sgt i32 %.val.i, 0
  br i1 %15, label %16, label %18, !prof !11

16:                                               ; preds = %14
  %17 = add nuw i32 %.val.i, 1
  store i32 %17, ptr %10, align 4, !tbaa !4
  br label %26

18:                                               ; preds = %14
  %.not.i19 = icmp eq i32 %.val.i, 0
  br i1 %.not.i19, label %26, label %19

19:                                               ; preds = %18
  tail call void @lean_inc_ref_cold(ptr noundef nonnull %10) #4
  br label %26

20:                                               ; preds = %9
  %21 = tail call ptr @lean_mk_array(ptr noundef %10, ptr noundef %11) #4
  %22 = icmp ult ptr %10, inttoptr (i64 2 to ptr)
  br i1 %22, label %lean_dec.exit, label %23

23:                                               ; preds = %20
  %24 = add i64 %12, -2
  %25 = inttoptr i64 %24 to ptr
  br label %lean_dec.exit

26:                                               ; preds = %19, %18, %16
  %27 = tail call ptr @lean_mk_array(ptr noundef nonnull %10, ptr noundef %11) #4
  %28 = tail call ptr @lean_nat_big_sub(ptr noundef nonnull %10, ptr noundef nonnull inttoptr (i64 3 to ptr)) #4
  %29 = load i32, ptr %10, align 4, !tbaa !4
  %30 = icmp sgt i32 %29, 1
  br i1 %30, label %31, label %33, !prof !11

31:                                               ; preds = %26
  %32 = add nsw i32 %29, -1
  store i32 %32, ptr %10, align 4, !tbaa !4
  br label %lean_dec.exit

33:                                               ; preds = %26
  %.not.i = icmp eq i32 %29, 0
  br i1 %.not.i, label %lean_dec.exit, label %34

34:                                               ; preds = %33
  tail call void @lean_dec_ref_cold(ptr noundef nonnull %10) #4
  br label %lean_dec.exit

lean_dec.exit:                                    ; preds = %23, %20, %34, %33, %31
  %.1.i21 = phi ptr [ %28, %31 ], [ %28, %33 ], [ %28, %34 ], [ inttoptr (i64 1 to ptr), %20 ], [ %25, %23 ]
  %35 = phi ptr [ %27, %31 ], [ %27, %33 ], [ %27, %34 ], [ %21, %20 ], [ %21, %23 ]
  %36 = tail call ptr @l_Lean_Expr_withAppAux___at___private_Lean_Elab_DeclNameGen_0__Lean_Elab_Command_NameGen_winnowExpr_visit___spec__2(ptr poison, ptr noundef %0, ptr noundef %35, ptr noundef %.1.i21, ptr noundef %3, ptr noundef %4, ptr noundef %5, ptr noundef %6, ptr noundef %7, ptr noundef %8)
  ret ptr %36
}